target datalayout = "e-m:e-p270:32:32-p271:32:32-p272:64:64-i64:64-i128:128-f80:128-n8:16:32:64-S128"
target triple = "x86_64-pc-linux-gnu"

%"class.icu_77::UnicodeString" = type { %"class.icu_77::Replaceable", %"union.icu_77::UnicodeString::StackBufferOrFields" }
%"class.icu_77::Replaceable" = type { %"class.icu_77::UObject" }
%"class.icu_77::UObject" = type { ptr }
%"union.icu_77::UnicodeString::StackBufferOrFields" = type { %struct.anon.0, [32 x i8] }
%struct.anon.0 = type { i16, i32, i32, ptr }
%"class.icu_77::DateTimePatternGenerator" = type <{ %"class.icu_77::UObject", %"class.icu_77::Locale", ptr, ptr, ptr, ptr, [16 x %"class.icu_77::UnicodeString"], [16 x [3 x %"class.icu_77::UnicodeString"]], [4 x %"class.icu_77::UnicodeString"], %"class.icu_77::UnicodeString", ptr, ptr, %"class.icu_77::UnicodeString", i16, [2 x i8], [7 x i32], i32, [4 x i8] }>
%"class.icu_77::Locale" = type <{ %"class.icu_77::UObject", [12 x i8], [6 x i8], [4 x i8], [2 x i8], i32, [4 x i8], ptr, [157 x i8], [3 x i8], ptr, i8, [7 x i8] }>
%struct.anon = type { i16, [27 x i16] }
%"class.icu_77::PtnSkeleton" = type <{ ptr, [16 x i32], %"class.icu_77::SkeletonFields", %"class.icu_77::SkeletonFields", i8, [7 x i8] }>
%"class.icu_77::SkeletonFields" = type { [16 x i8], [16 x i8] }

@_ZTVN6icu_777UObjectE = available_externally unnamed_addr constant { [5 x ptr] } { [5 x ptr] [ptr null, ptr @_ZTIN6icu_777UObjectE, ptr @_ZN6icu_777UObjectD1Ev, ptr @_ZN6icu_777UObjectD0Ev, ptr @_ZNK6icu_777UObject17getDynamicClassIDEv] }, align 8
@_ZN6icu_7711PtnSkeletonC1Ev = unnamed_addr alias void (ptr), ptr @_ZN6icu_7711PtnSkeletonC2Ev
@_ZN6icu_7711PtnSkeletonD1Ev = unnamed_addr alias void (ptr), ptr @_ZN6icu_7711PtnSkeletonD2Ev

; Function Attrs: inlinehint mustprogress nounwind uwtable
define linkonce_odr void @_ZN6icu_777UObjectC2Ev(ptr noundef nonnull align 8 dereferenceable(8) %0) unnamed_addr #2 comdat align 2 {
  %2 = alloca ptr, align 8
  store ptr %0, ptr %2, align 8, !tbaa !58
  %3 = load ptr, ptr %2, align 8
  store ptr getelementptr inbounds inrange(-16, 24) ({ [5 x ptr] }, ptr @_ZTVN6icu_777UObjectE, i32 0, i32 0, i32 2), ptr %3, align 8, !tbaa !37
  ret void
}

; Function Attrs: inlinehint mustprogress nounwind uwtable
define linkonce_odr void @_ZN6icu_7711ReplaceableC2Ev(ptr noundef nonnull align 8 dereferenceable(8) %0) unnamed_addr #2 comdat align 2 {
  %2 = alloca ptr, align 8
  store ptr %0, ptr %2, align 8, !tbaa !313
  %3 = load ptr, ptr %2, align 8
  call void @_ZN6icu_777UObjectC2Ev(ptr noundef nonnull align 8 dereferenceable(8) %3) #13
  store ptr getelementptr inbounds inrange(-16, 88) ({ [13 x ptr] }, ptr @_ZTVN6icu_7711ReplaceableE, i32 0, i32 0, i32 2), ptr %3, align 8, !tbaa !37
  ret void
}

; Function Attrs: mustprogress uwtable
define void @_ZN6icu_7715DateTimeMatcher3setERKNS_13UnicodeStringEPNS_12FormatParserE(ptr noundef nonnull align 8 dereferenceable(152) %0, ptr noundef nonnull align 8 dereferenceable(64) %1, ptr noundef %2) #1 align 2 personality ptr @__gxx_personality_v0 {
  %4 = alloca ptr, align 8
  %5 = alloca ptr, align 8
  %6 = alloca ptr, align 8
  %7 = alloca %"class.icu_77::PtnSkeleton", align 8
  %8 = alloca ptr, align 8
  %9 = alloca i32, align 4
  store ptr %0, ptr %4, align 8, !tbaa !71
  store ptr %1, ptr %5, align 8, !tbaa !60
  store ptr %2, ptr %6, align 8, !tbaa !69
  %10 = load ptr, ptr %4, align 8
  call void @llvm.lifetime.start.p0(i64 144, ptr %7) #13
  call void @_ZN6icu_7711PtnSkeletonC1Ev(ptr noundef nonnull align 8 dereferenceable(137) %7)
  %11 = load ptr, ptr %5, align 8, !tbaa !60
  %12 = load ptr, ptr %6, align 8, !tbaa !69
  invoke void @_ZN6icu_7715DateTimeMatcher3setERKNS_13UnicodeStringEPNS_12FormatParserERNS_11PtnSkeletonE(ptr noundef nonnull align 8 dereferenceable(152) %10, ptr noundef nonnull align 8 dereferenceable(64) %11, ptr noundef %12, ptr noundef nonnull align 8 dereferenceable(137) %7)
          to label %13 unwind label %14

13:                                               ; preds = %3
  call void @_ZN6icu_7711PtnSkeletonD1Ev(ptr noundef nonnull align 8 dereferenceable(137) %7) #13
  call void @llvm.lifetime.end.p0(i64 144, ptr %7) #13
  ret void

14:                                               ; preds = %3
  %15 = landingpad { ptr, i32 }
          cleanup
  %16 = extractvalue { ptr, i32 } %15, 0
  store ptr %16, ptr %8, align 8
  %17 = extractvalue { ptr, i32 } %15, 1
  store i32 %17, ptr %9, align 4
  call void @_ZN6icu_7711PtnSkeletonD1Ev(ptr noundef nonnull align 8 dereferenceable(137) %7) #13
  call void @llvm.lifetime.end.p0(i64 144, ptr %7) #13
  br label %18

18:                                               ; preds = %14
  %19 = load ptr, ptr %8, align 8
  %20 = load i32, ptr %9, align 4
  %21 = insertvalue { ptr, i32 } poison, ptr %19, 0
  %22 = insertvalue { ptr, i32 } %21, i32 %20, 1
  resume { ptr, i32 } %22
}

; Function Attrs: inlinehint mustprogress uwtable
define linkonce_odr void @_ZN6icu_7713UnicodeStringC2Ev(ptr noundef nonnull align 8 dereferenceable(64) %0) unnamed_addr #3 comdat align 2 {
  %2 = alloca ptr, align 8
  store ptr %0, ptr %2, align 8, !tbaa !60
  %3 = load ptr, ptr %2, align 8
  call void @_ZN6icu_7711ReplaceableC2Ev(ptr noundef nonnull align 8 dereferenceable(8) %3)
  store ptr getelementptr inbounds inrange(-16, 88) ({ [13 x ptr] }, ptr @_ZTVN6icu_7713UnicodeStringE, i32 0, i32 0, i32 2), ptr %3, align 8, !tbaa !37
  %4 = getelementptr inbounds nuw %"class.icu_77::UnicodeString", ptr %3, i32 0, i32 1
  %5 = getelementptr inbounds nuw %struct.anon, ptr %4, i32 0, i32 0
  store i16 2, ptr %5, align 8, !tbaa !62
  ret void
}

; Function Attrs: inlinehint mustprogress nounwind uwtable
define internal noundef signext i8 @_ZL9U_FAILURE10UErrorCode(i32 noundef %0) #2 {
  %2 = alloca i32, align 4
  store i32 %0, ptr %2, align 4, !tbaa !15
  %3 = load i32, ptr %2, align 4, !tbaa !15
  %4 = icmp sgt i32 %3, 0
  %5 = zext i1 %4 to i8
  ret i8 %5
}

; Function Attrs: mustprogress uwtable
define void @_ZN6icu_7724DateTimePatternGenerator17replaceFieldTypesERKNS_13UnicodeStringES3_28UDateTimePatternMatchOptionsR10UErrorCode(ptr dead_on_unwind noalias writable sret(%"class.icu_77::UnicodeString") align 8 %0, ptr noundef nonnull align 8 dereferenceable(4796) %1, ptr noundef nonnull align 8 dereferenceable(64) %2, ptr noundef nonnull align 8 dereferenceable(64) %3, i32 noundef %4, ptr noundef nonnull align 4 dereferenceable(4) %5) #1 align 2 {
  %7 = alloca ptr, align 8
  %8 = alloca ptr, align 8
  %9 = alloca ptr, align 8
  %10 = alloca ptr, align 8
  %11 = alloca i32, align 4
  %12 = alloca ptr, align 8
  %13 = alloca i1, align 1
  store ptr %0, ptr %7, align 8
  store ptr %1, ptr %8, align 8, !tbaa !23
  store ptr %2, ptr %9, align 8, !tbaa !60
  store ptr %3, ptr %10, align 8, !tbaa !60
  store i32 %4, ptr %11, align 4, !tbaa !189
  store ptr %5, ptr %12, align 8, !tbaa !22
  %14 = load ptr, ptr %8, align 8
  %15 = load ptr, ptr %12, align 8, !tbaa !22
  %16 = load i32, ptr %15, align 4, !tbaa !15
  %17 = call noundef signext i8 @_ZL9U_FAILURE10UErrorCode(i32 noundef %16)
  %18 = icmp ne i8 %17, 0
  br i1 %18, label %19, label %20

19:                                               ; preds = %6
  call void @_ZN6icu_7713UnicodeStringC2Ev(ptr noundef nonnull align 8 dereferenceable(64) %0)
  br label %40

20:                                               ; preds = %6
  %21 = getelementptr inbounds nuw %"class.icu_77::DateTimePatternGenerator", ptr %14, i32 0, i32 16
  %22 = load i32, ptr %21, align 8, !tbaa !53
  %23 = call noundef signext i8 @_ZL9U_FAILURE10UErrorCode(i32 noundef %22)
  %24 = icmp ne i8 %23, 0
  br i1 %24, label %25, label %29

25:                                               ; preds = %20
  %26 = getelementptr inbounds nuw %"class.icu_77::DateTimePatternGenerator", ptr %14, i32 0, i32 16
  %27 = load i32, ptr %26, align 8, !tbaa !53
  %28 = load ptr, ptr %12, align 8, !tbaa !22
  store i32 %27, ptr %28, align 4, !tbaa !15
  call void @_ZN6icu_7713UnicodeStringC2Ev(ptr noundef nonnull align 8 dereferenceable(64) %0)
  br label %40

29:                                               ; preds = %20
  %30 = getelementptr inbounds nuw %"class.icu_77::DateTimePatternGenerator", ptr %14, i32 0, i32 3
  %31 = load ptr, ptr %30, align 8, !tbaa !55
  %32 = load ptr, ptr %10, align 8, !tbaa !60
  %33 = getelementptr inbounds nuw %"class.icu_77::DateTimePatternGenerator", ptr %14, i32 0, i32 2
  %34 = load ptr, ptr %33, align 8, !tbaa !54
  call void @_ZN6icu_7715DateTimeMatcher3setERKNS_13UnicodeStringEPNS_12FormatParserE(ptr noundef nonnull align 8 dereferenceable(152) %31, ptr noundef nonnull align 8 dereferenceable(64) %32, ptr noundef %34)
  store i1 false, ptr %13, align 1
  %35 = load ptr, ptr %9, align 8, !tbaa !60
  %36 = load i32, ptr %11, align 4, !tbaa !189
  call void @_ZN6icu_7724DateTimePatternGenerator16adjustFieldTypesERKNS_13UnicodeStringEPKNS_11PtnSkeletonEi28UDateTimePatternMatchOptions(ptr dead_on_unwind writable sret(%"class.icu_77::UnicodeString") align 8 %0, ptr noundef nonnull align 8 dereferenceable(4796) %14, ptr noundef nonnull align 8 dereferenceable(64) %35, ptr noundef null, i32 noundef 0, i32 noundef %36)
  store i1 true, ptr %13, align 1
  %37 = load i1, ptr %13, align 1
  br i1 %37, label %39, label %38

38:                                               ; preds = %29
  call void @_ZN6icu_7713UnicodeStringD1Ev(ptr noundef nonnull align 8 dereferenceable(64) %0) #13
  br label %39

39:                                               ; preds = %38, %29
  br label %40

40:                                               ; preds = %39, %25, %19
  ret void
}

; Function Attrs: mustprogress uwtable
define void @_ZN6icu_7724DateTimePatternGenerator17replaceFieldTypesERKNS_13UnicodeStringES3_R10UErrorCode(ptr dead_on_unwind noalias writable sret(%"class.icu_77::UnicodeString") align 8 %0, ptr noundef nonnull align 8 dereferenceable(4796) %1, ptr noundef nonnull align 8 dereferenceable(64) %2, ptr noundef nonnull align 8 dereferenceable(64) %3, ptr noundef nonnull align 4 dereferenceable(4) %4) #1 align 2 {
  %6 = alloca ptr, align 8
  %7 = alloca ptr, align 8
  %8 = alloca ptr, align 8
  %9 = alloca ptr, align 8
  %10 = alloca ptr, align 8
  store ptr %0, ptr %6, align 8
  store ptr %1, ptr %7, align 8, !tbaa !23
  store ptr %2, ptr %8, align 8, !tbaa !60
  store ptr %3, ptr %9, align 8, !tbaa !60
  store ptr %4, ptr %10, align 8, !tbaa !22
  %11 = load ptr, ptr %7, align 8
  %12 = load ptr, ptr %8, align 8, !tbaa !60
  %13 = load ptr, ptr %9, align 8, !tbaa !60
  %14 = load ptr, ptr %10, align 8, !tbaa !22
  call void @_ZN6icu_7724DateTimePatternGenerator17replaceFieldTypesERKNS_13UnicodeStringES3_28UDateTimePatternMatchOptionsR10UErrorCode(ptr dead_on_unwind writable sret(%"class.icu_77::UnicodeString") align 8 %0, ptr noundef nonnull align 8 dereferenceable(4796) %11, ptr noundef nonnull align 8 dereferenceable(64) %12, ptr noundef nonnull align 8 dereferenceable(64) %13, i32 noundef 0, ptr noundef nonnull align 4 dereferenceable(4) %14)
  ret void
}