; Function Attrs: mustprogress uwtable
define void @_ZN6icu_7724DateTimePatternGenerator17replaceFieldTypesERKNS_13UnicodeStringES3_R10UErrorCode(ptr dead_on_unwind noalias writable sret(%"class.icu_77::UnicodeString") align 8 %0, ptr noundef nonnull align 8 dereferenceable(4796) %1, ptr noundef nonnull align 8 dereferenceable(64) %2, ptr noundef nonnull align 8 dereferenceable(64) %3, ptr noundef nonnull align 4 captures(none) dereferenceable(4) %4) local_unnamed_addr #1 align 2 personality ptr @__gxx_personality_v0 {
  %6 = alloca %"class.icu_77::PtnSkeleton", align 8
  tail call void @llvm.experimental.noalias.scope.decl(metadata !156)
  %7 = load i32, ptr %4, align 4, !tbaa !13, !noalias !156
  %8 = icmp slt i32 %7, 1
  br i1 %8, label %11, label %9

9:                                                ; preds = %5
  store ptr getelementptr inbounds nuw inrange(-16, 88) (i8, ptr @_ZTVN6icu_7713UnicodeStringE, i64 16), ptr %0, align 8, !tbaa !15, !alias.scope !156
  %10 = getelementptr inbounds nuw i8, ptr %0, i64 8
  store i16 2, ptr %10, align 8, !tbaa !17, !alias.scope !156
  br label %_ZN6icu_7724DateTimePatternGenerator17replaceFieldTypesERKNS_13UnicodeStringES3_28UDateTimePatternMatchOptionsR10UErrorCode.exit

11:                                               ; preds = %5
  %12 = getelementptr inbounds nuw i8, ptr %1, i64 4792
  %13 = load i32, ptr %12, align 8, !tbaa !30, !noalias !156
  %14 = icmp slt i32 %13, 1
  br i1 %14, label %17, label %15

15:                                               ; preds = %11
  store i32 %13, ptr %4, align 4, !tbaa !13, !noalias !156
  store ptr getelementptr inbounds nuw inrange(-16, 88) (i8, ptr @_ZTVN6icu_7713UnicodeStringE, i64 16), ptr %0, align 8, !tbaa !15, !alias.scope !156
  %16 = getelementptr inbounds nuw i8, ptr %0, i64 8
  store i16 2, ptr %16, align 8, !tbaa !17, !alias.scope !156
  br label %_ZN6icu_7724DateTimePatternGenerator17replaceFieldTypesERKNS_13UnicodeStringES3_28UDateTimePatternMatchOptionsR10UErrorCode.exit

17:                                               ; preds = %11
  %18 = getelementptr inbounds nuw i8, ptr %1, i64 240
  %19 = load ptr, ptr %18, align 8, !tbaa !32, !noalias !156
  %20 = getelementptr inbounds nuw i8, ptr %1, i64 232
  %21 = load ptr, ptr %20, align 8, !tbaa !31, !noalias !156
  call void @llvm.lifetime.start.p0(i64 144, ptr nonnull %6) #35, !noalias !156
  call void @_ZN6icu_7711PtnSkeletonC1Ev(ptr noundef nonnull align 8 dereferenceable(137) %6), !noalias !156
  invoke void @_ZN6icu_7715DateTimeMatcher3setERKNS_13UnicodeStringEPNS_12FormatParserERNS_11PtnSkeletonE(ptr noundef nonnull align 8 dereferenceable(152) %19, ptr noundef nonnull align 8 dereferenceable(64) %3, ptr noundef %21, ptr noundef nonnull align 8 dereferenceable(137) %6)
          to label %_ZN6icu_7715DateTimeMatcher3setERKNS_13UnicodeStringEPNS_12FormatParserE.exit.i unwind label %22, !noalias !156

22:                                               ; preds = %17
  %23 = landingpad { ptr, i32 }
          cleanup
  call void @_ZN6icu_7711PtnSkeletonD1Ev(ptr noundef nonnull align 8 dereferenceable(137) %6) #35, !noalias !156
  call void @llvm.lifetime.end.p0(i64 144, ptr nonnull %6) #35, !noalias !156
  resume { ptr, i32 } %23

_ZN6icu_7715DateTimeMatcher3setERKNS_13UnicodeStringEPNS_12FormatParserE.exit.i: ; preds = %17
  call void @_ZN6icu_7711PtnSkeletonD1Ev(ptr noundef nonnull align 8 dereferenceable(137) %6) #35, !noalias !156
  call void @llvm.lifetime.end.p0(i64 144, ptr nonnull %6) #35, !noalias !156
  call void @_ZN6icu_7724DateTimePatternGenerator16adjustFieldTypesERKNS_13UnicodeStringEPKNS_11PtnSkeletonEi28UDateTimePatternMatchOptions(ptr dead_on_unwind writable sret(%"class.icu_77::UnicodeString") align 8 %0, ptr noundef nonnull align 8 dereferenceable(4796) %1, ptr noundef nonnull align 8 dereferenceable(64) %2, ptr noundef null, i32 noundef 0, i32 noundef 0)
  br label %_ZN6icu_7724DateTimePatternGenerator17replaceFieldTypesERKNS_13UnicodeStringES3_28UDateTimePatternMatchOptionsR10UErrorCode.exit

_ZN6icu_7724DateTimePatternGenerator17replaceFieldTypesERKNS_13UnicodeStringES3_28UDateTimePatternMatchOptionsR10UErrorCode.exit: ; preds = %9, %15, %_ZN6icu_7715DateTimeMatcher3setERKNS_13UnicodeStringEPNS_12FormatParserE.exit.i
  ret void
}